; Function Attrs: mustprogress nounwind uwtable
define void @_ZNK5faiss19HStackInvertedLists11release_idsEmPKl(ptr nonnull readnone align 8 captures(none) %0, i64 %1, ptr noundef %2) unnamed_addr #5 align 2 {
  %4 = icmp eq ptr %2, null
  br i1 %4, label %6, label %5

5:                                                ; preds = %3
  tail call void @_ZdaPv(ptr noundef nonnull %2) #31
  br label %6

6:                                                ; preds = %5, %3
  ret void
}